Certificate:
    Data:
        Version: 3 (0x2)
        Serial Number:
            15:d5:b5:e8:64:c8:5a:9f:7e:13:e2:48:d3:00:84:7d:12:ab:a3:0c
    Signature Algorithm: sha256WithRSAEncryption
        Issuer: CN=idpnt.eea.europa.eu
        Validity
            Not Before: Apr  2 07:44:37 2017 GMT
            Not After : Apr  2 07:44:37 2037 GMT
        Subject: CN=idpnt.eea.europa.eu
        Subject Public Key Info:
            Public Key Algorithm: rsaEncryption
                Public-Key: (2048 bit)
                Modulus:
                    00:ab:a6:76:24:4e:09:86:ba:b4:ce:99:ef:33:8e:
                    a6:62:cb:38:5a:8f:81:f1:39:0b:07:fc:51:14:bd:
                    b3:72:57:85:ea:0a:59:bc:7b:4e:5f:b5:fc:17:e0:
                    16:14:a5:c0:0c:4b:bd:15:e7:7d:fb:06:a4:93:b5:
                    d0:84:d0:58:36:2f:d7:ea:14:e3:a2:ff:5e:9c:02:
                    4b:e1:31:34:d3:57:e9:a9:bf:7f:f1:48:ea:43:50:
                    39:e6:c7:0c:77:b2:fc:e6:d1:25:e8:7e:17:d3:06:
                    cd:0d:1d:5a:8a:21:71:f7:37:4d:19:06:09:d3:c1:
                    73:b8:b0:a8:f7:28:88:cd:01:02:61:e8:c3:fb:ea:
                    6e:ae:06:67:7c:3d:4e:7c:5e:26:90:27:11:43:f8:
                    c8:d7:22:ae:ba:2c:b8:9c:26:8a:7c:ed:27:ed:16:
                    fd:96:10:17:b8:c9:14:8f:17:4e:93:72:b3:ea:78:
                    9f:dc:84:df:eb:14:62:00:e2:ee:e9:6a:e8:13:f2:
                    54:eb:18:5b:4b:ff:ea:44:3e:9a:50:06:da:3d:3e:
                    fc:94:18:55:59:7b:5a:b3:96:5c:29:71:c1:f6:4b:
                    c6:04:28:eb:69:23:db:e1:2f:d2:3b:af:ee:7d:2f:
                    b5:27:bc:d9:c6:ea:cc:8a:4e:82:fe:05:a8:7a:ff:
                    6c:cb
                Exponent: 65537 (0x10001)
        X509v3 extensions:
            X509v3 Subject Key Identifier: 
                96:BB:C9:6D:D5:7F:79:F0:9C:31:1A:3C:38:20:E1:83:7C:BD:9B:18
            X509v3 Subject Alternative Name: 
                DNS:idpnt.eea.europa.eu, URI:https://idpnt.eea.europa.eu/idp/shibboleth
    Signature Algorithm: sha256WithRSAEncryption
         38:06:9e:66:f4:5c:4a:1f:11:f5:82:cd:be:df:93:d2:8e:a0:
         c9:59:e2:da:2e:8e:16:94:bf:ab:64:2a:8e:be:d5:6f:8f:8d:
         50:83:33:7d:02:12:15:a4:64:bd:f9:64:30:9f:5d:b1:d9:d0:
         9e:99:64:78:69:0f:f2:0d:1f:5e:e0:ac:b5:5e:24:f9:f9:f3:
         63:84:ae:64:e1:f2:35:66:fa:50:7a:92:0e:3e:5a:e3:3d:7f:
         05:de:5d:e1:67:eb:ae:75:cb:51:7d:e6:9a:39:9e:c1:fb:55:
         62:8a:18:1c:a9:ff:70:db:14:c1:5b:fd:94:c6:3f:d8:28:d4:
         95:ab:9c:28:bd:66:de:19:25:39:06:78:35:a5:8e:49:7b:e9:
         b9:95:27:6c:36:aa:de:fb:37:f7:88:a2:95:cf:2e:91:38:c5:
         3d:6e:83:f6:5e:3b:77:14:8a:38:ba:86:7c:8c:57:f1:e5:92:
         01:7a:de:49:4c:8c:97:e8:df:b8:07:b7:19:16:4c:b0:54:fd:
         1e:77:f5:0d:4a:1b:d8:9d:7c:3f:81:31:8f:dd:f5:9f:ed:21:
         36:93:29:27:f6:76:0c:0e:9a:91:a4:a2:78:85:01:c5:b2:6d:
         6e:74:60:b1:d1:0e:f7:06:4f:bd:38:cc:90:ce:ec:37:9a:14:
         b2:ab:dc:e9
-----BEGIN CERTIFICATE-----
MIIDNzCCAh+gAwIBAgIUFdW16GTIWp9+E+JI0wCEfRKrowwwDQYJKoZIhvcNAQEL
BQAwHjEcMBoGA1UEAwwTaWRwbnQuZWVhLmV1cm9wYS5ldTAeFw0xNzA0MDIwNzQ0
MzdaFw0zNzA0MDIwNzQ0MzdaMB4xHDAaBgNVBAMME2lkcG50LmVlYS5ldXJvcGEu
ZXUwggEiMA0GCSqGSIb3DQEBAQUAA4IBDwAwggEKAoIBAQCrpnYkTgmGurTOme8z
jqZiyzhaj4HxOQsH/FEUvbNyV4XqClm8e05ftfwX4BYUpcAMS70V5337BqSTtdCE
0Fg2L9fqFOOi/16cAkvhMTTTV+mpv3/xSOpDUDnmxwx3svzm0SXofhfTBs0NHVqK
IXH3N00ZBgnTwXO4sKj3KIjNAQJh6MP76m6uBmd8PU58XiaQJxFD+MjXIq66LLic
Jop87SftFv2WEBe4yRSPF06TcrPqeJ/chN/rFGIA4u7paugT8lTrGFtL/+pEPppQ
Bto9PvyUGFVZe1qzllwpccH2S8YEKOtpI9vhL9I7r+59L7UnvNnG6syKToL+Bah6
/2zLAgMBAAGjbTBrMB0GA1UdDgQWBBSWu8lt1X958JwxGjw4IOGDfL2bGDBKBgNV
HREEQzBBghNpZHBudC5lZWEuZXVyb3BhLmV1hipodHRwczovL2lkcG50LmVlYS5l
dXJvcGEuZXUvaWRwL3NoaWJib2xldGgwDQYJKoZIhvcNAQELBQADggEBADgGnmb0
XEofEfWCzb7fk9KOoMlZ4toujhaUv6tkKo6+1W+PjVCDM30CEhWkZL35ZDCfXbHZ
0J6ZZHhpD/INH17grLVeJPn582OErmTh8jVm+lB6kg4+WuM9fwXeXeFn6651y1F9
5po5nsH7VWKKGByp/3DbFMFb/ZTGP9go1JWrnCi9Zt4ZJTkGeDWljkl76bmVJ2w2
qt77N/eIopXPLpE4xT1ug/ZeO3cUiji6hnyMV/HlkgF63klMjJfo37gHtxkWTLBU
/R539Q1KG9idfD+BMY/d9Z/tITaTKSf2dgwOmpGkoniFAcWybW50YLHRDvcGT704
zJDO7DeaFLKr3Ok=
-----END CERTIFICATE-----
