Certificate:
    Data:
        Version: 3 (0x2)
        Serial Number:
            c5:d4:e7:ab:cf:bf:9b:ef:c6:27:59:73:b0:aa:f7:63:7f:a4:65:4d
    Signature Algorithm: sha256WithRSAEncryption
        Issuer: CN=idpnt.eea.europa.eu
        Validity
            Not Before: Apr  2 07:44:32 2017 GMT
            Not After : Apr  2 07:44:32 2037 GMT
        Subject: CN=idpnt.eea.europa.eu
        Subject Public Key Info:
            Public Key Algorithm: rsaEncryption
                Public-Key: (2048 bit)
                Modulus:
                    00:bd:0a:11:e3:d7:f6:de:47:35:ca:89:a2:f5:39:
                    fe:e2:74:64:19:ce:40:6f:c0:95:d4:ed:73:ee:55:
                    fe:10:53:79:11:28:b3:22:bf:f3:0a:0d:0a:5c:3b:
                    2b:7e:b1:2c:ea:17:a7:6c:d8:01:5d:70:17:7c:c9:
                    c7:b6:75:c2:60:3a:ed:4e:dd:de:2d:b9:aa:be:96:
                    b2:67:d6:f7:0c:f8:e4:a8:92:e1:fe:0d:12:be:10:
                    1e:4f:4f:26:1c:94:38:1e:1e:b5:dd:6f:9a:6b:cf:
                    79:3c:19:c5:bc:15:92:40:3d:a8:d0:df:c7:12:d2:
                    4a:f0:c8:f5:ef:49:d2:cf:4a:8f:28:14:17:c9:04:
                    95:c1:a1:1c:1c:84:ef:cd:01:be:d0:36:65:19:28:
                    c1:b2:c3:95:b5:38:98:b8:24:2b:d9:d7:f7:78:9f:
                    ce:3d:fc:90:23:60:c9:82:b7:3a:d9:d1:2c:63:e6:
                    f1:40:04:49:ed:17:f4:8e:ea:46:a2:38:55:06:c6:
                    62:1b:8c:d7:05:19:de:84:03:25:3a:24:6d:6e:13:
                    bb:3b:1d:29:b8:c8:c8:17:af:07:da:2e:7c:2f:04:
                    62:8b:fc:5a:df:98:87:5c:a3:d4:2c:75:1e:09:eb:
                    cb:2a:e3:ff:91:66:4f:7c:bb:45:8a:57:85:4e:1e:
                    3d:07
                Exponent: 65537 (0x10001)
        X509v3 extensions:
            X509v3 Subject Key Identifier: 
                22:69:B3:13:02:E8:C5:4B:97:E8:EF:EC:1D:57:99:1C:B4:31:37:97
            X509v3 Subject Alternative Name: 
                DNS:idpnt.eea.europa.eu, URI:https://idpnt.eea.europa.eu/idp/shibboleth
    Signature Algorithm: sha256WithRSAEncryption
         3f:00:ff:be:1a:a5:9f:c7:4e:f7:d5:0d:7a:28:e1:a1:9d:f0:
         24:5f:9f:a2:72:ec:69:a6:2b:a8:e1:42:99:2b:18:94:23:af:
         c7:9b:de:6e:d6:60:bf:be:72:9f:ac:c8:68:71:52:d9:1d:0f:
         a9:bb:ee:67:3a:e0:01:c1:32:7f:97:49:d9:69:a7:a5:bd:11:
         b5:6b:ca:d7:95:da:20:26:c8:04:4c:73:3f:ef:e9:18:1e:b0:
         fd:d5:3c:17:b0:8c:5c:63:38:b2:2d:a4:6a:89:f7:ae:93:7c:
         a2:52:d1:62:62:40:39:d4:cc:98:56:b0:69:c0:1e:a3:ee:6a:
         2f:50:1e:33:8a:0d:54:4c:5b:7b:f4:76:f2:03:e2:d0:93:8b:
         77:b1:de:17:29:0f:50:5d:89:5e:0c:a8:d2:05:93:1b:b8:1a:
         43:ce:4f:17:b6:ac:b1:b2:ed:a4:c1:2a:c3:8e:18:87:6b:fa:
         70:a8:87:82:27:fb:b3:0d:67:75:35:a7:f2:2c:13:d1:64:74:
         31:cc:89:82:ec:54:22:49:aa:20:0d:dd:8b:70:c8:ef:ec:96:
         92:0d:2a:43:a9:01:04:81:9e:61:f7:9b:2f:cb:12:2b:33:fa:
         3d:4d:b1:16:eb:4e:a8:bf:fb:bd:66:45:e7:8b:42:56:03:c2:
         c2:f3:1a:87
-----BEGIN CERTIFICATE-----
MIIDODCCAiCgAwIBAgIVAMXU56vPv5vvxidZc7Cq92N/pGVNMA0GCSqGSIb3DQEB
CwUAMB4xHDAaBgNVBAMME2lkcG50LmVlYS5ldXJvcGEuZXUwHhcNMTcwNDAyMDc0
NDMyWhcNMzcwNDAyMDc0NDMyWjAeMRwwGgYDVQQDDBNpZHBudC5lZWEuZXVyb3Bh
LmV1MIIBIjANBgkqhkiG9w0BAQEFAAOCAQ8AMIIBCgKCAQEAvQoR49f23kc1yomi
9Tn+4nRkGc5Ab8CV1O1z7lX+EFN5ESizIr/zCg0KXDsrfrEs6henbNgBXXAXfMnH
tnXCYDrtTt3eLbmqvpayZ9b3DPjkqJLh/g0SvhAeT08mHJQ4Hh613W+aa895PBnF
vBWSQD2o0N/HEtJK8Mj170nSz0qPKBQXyQSVwaEcHITvzQG+0DZlGSjBssOVtTiY
uCQr2df3eJ/OPfyQI2DJgrc62dEsY+bxQARJ7Rf0jupGojhVBsZiG4zXBRnehAMl
OiRtbhO7Ox0puMjIF68H2i58LwRii/xa35iHXKPULHUeCevLKuP/kWZPfLtFileF
Th49BwIDAQABo20wazAdBgNVHQ4EFgQUImmzEwLoxUuX6O/sHVeZHLQxN5cwSgYD
VR0RBEMwQYITaWRwbnQuZWVhLmV1cm9wYS5ldYYqaHR0cHM6Ly9pZHBudC5lZWEu
ZXVyb3BhLmV1L2lkcC9zaGliYm9sZXRoMA0GCSqGSIb3DQEBCwUAA4IBAQA/AP++
GqWfx0731Q16KOGhnfAkX5+icuxppiuo4UKZKxiUI6/Hm95u1mC/vnKfrMhocVLZ
HQ+pu+5nOuABwTJ/l0nZaaelvRG1a8rXldogJsgETHM/7+kYHrD91TwXsIxcYziy
LaRqifeuk3yiUtFiYkA51MyYVrBpwB6j7movUB4zig1UTFt79HbyA+LQk4t3sd4X
KQ9QXYleDKjSBZMbuBpDzk8Xtqyxsu2kwSrDjhiHa/pwqIeCJ/uzDWd1NafyLBPR
ZHQxzImC7FQiSaogDd2LcMjv7JaSDSpDqQEEgZ5h95svyxIrM/o9TbEW606ov/u9
ZkXni0JWA8LC8xqH
-----END CERTIFICATE-----
