Certificate:
    Data:
        Version: 3 (0x2)
        Serial Number:
            53:ae:c2:53:2c:b4:a5:af:94:67:0e:93:e8:27:eb:df:13:b7:13:5d
    Signature Algorithm: sha256WithRSAEncryption
        Issuer: CN=idpnt.eea.europa.eu
        Validity
            Not Before: Apr  2 07:44:31 2017 GMT
            Not After : Apr  2 07:44:31 2037 GMT
        Subject: CN=idpnt.eea.europa.eu
        Subject Public Key Info:
            Public Key Algorithm: rsaEncryption
                Public-Key: (2048 bit)
                Modulus:
                    00:a5:09:8f:1f:40:c8:f5:a0:d5:dd:30:8b:b1:54:
                    6b:0a:cb:02:62:1b:fb:92:32:d9:c6:8d:cf:02:94:
                    0b:21:66:03:2c:93:24:68:14:ae:24:4d:44:f1:02:
                    20:b2:df:61:bb:bb:f6:ce:2e:f8:1e:95:62:53:90:
                    15:74:ca:7e:8a:bc:58:0d:11:ce:be:29:17:6b:c4:
                    16:7b:4e:8a:43:3c:e5:27:79:3f:32:81:a7:43:18:
                    c5:39:b3:bc:38:67:53:b0:d8:02:b0:c5:ac:d1:16:
                    50:59:5f:08:ae:f3:ed:7a:52:68:8b:d7:fe:8e:b7:
                    c6:8d:07:a7:47:23:78:2e:bf:6b:0c:be:2c:5a:44:
                    b4:18:ec:08:f7:b5:0a:08:a7:7c:88:c9:0e:36:4c:
                    c7:84:3a:b1:bd:bc:b8:9a:6c:d4:fe:00:ff:86:e9:
                    6e:96:5d:69:80:04:fe:25:13:a5:f2:e3:b9:b6:e1:
                    dc:ea:33:18:40:8f:fd:3e:27:20:38:68:2b:59:f4:
                    a0:59:53:64:fc:57:ff:9f:e6:99:2b:fa:7b:5c:03:
                    5c:a1:2b:14:7d:fb:a4:bf:cf:41:44:c6:0e:20:c7:
                    68:fc:83:46:7f:80:f6:7d:79:7c:35:2f:8e:9f:96:
                    f5:55:a2:79:08:8c:53:ba:9f:a6:4e:c9:2c:22:e7:
                    1b:37
                Exponent: 65537 (0x10001)
        X509v3 extensions:
            X509v3 Subject Key Identifier: 
                21:C1:7F:F3:FE:E4:A0:65:4C:CC:F2:BB:32:21:BC:37:DE:A6:34:51
            X509v3 Subject Alternative Name: 
                DNS:idpnt.eea.europa.eu, URI:https://idpnt.eea.europa.eu/idp/shibboleth
    Signature Algorithm: sha256WithRSAEncryption
         8b:84:b6:c4:2c:c9:b3:9b:68:e1:c9:9f:ef:68:70:b5:d8:30:
         f3:ea:dc:d7:b3:03:46:d7:2f:19:66:92:e8:59:27:5b:0f:75:
         d5:82:4c:b6:79:a6:a3:ec:e7:c9:69:7f:aa:b0:6c:5c:01:16:
         e6:d1:77:d7:e7:5d:11:f3:5e:42:05:0c:40:9a:1b:22:30:18:
         bb:ec:38:3e:4c:70:60:1f:e2:fa:a3:f8:a0:3f:05:0c:91:f1:
         b2:40:db:93:f3:a8:50:63:ff:d5:ce:71:0d:ed:c3:0d:38:bc:
         cc:a0:f0:f7:26:e5:0e:7e:d9:18:f1:47:e8:5a:b5:6d:17:4f:
         b6:99:55:2e:1a:f0:5a:3d:1d:25:6a:8c:2d:43:f9:f6:8a:5f:
         5f:41:a4:57:a9:33:96:9d:b9:d1:8d:13:39:ab:bb:b2:73:16:
         d9:84:de:a4:9f:4d:ae:90:6f:88:e9:e8:ec:ee:78:9c:07:85:
         ca:2a:28:aa:59:80:e6:bb:8a:e8:7d:55:c8:65:19:cd:75:71:
         23:3e:55:10:d8:0d:b9:af:bb:11:49:44:fe:10:e9:60:5a:e9:
         0d:74:e2:97:27:84:ca:64:36:6e:61:fc:8e:b0:e4:14:2b:50:
         e5:af:2a:99:a1:51:b3:fa:be:84:4b:f1:66:85:80:cc:e0:a1:
         36:b3:10:a1
-----BEGIN CERTIFICATE-----
MIIDNzCCAh+gAwIBAgIUU67CUyy0pa+UZw6T6Cfr3xO3E10wDQYJKoZIhvcNAQEL
BQAwHjEcMBoGA1UEAwwTaWRwbnQuZWVhLmV1cm9wYS5ldTAeFw0xNzA0MDIwNzQ0
MzFaFw0zNzA0MDIwNzQ0MzFaMB4xHDAaBgNVBAMME2lkcG50LmVlYS5ldXJvcGEu
ZXUwggEiMA0GCSqGSIb3DQEBAQUAA4IBDwAwggEKAoIBAQClCY8fQMj1oNXdMIux
VGsKywJiG/uSMtnGjc8ClAshZgMskyRoFK4kTUTxAiCy32G7u/bOLvgelWJTkBV0
yn6KvFgNEc6+KRdrxBZ7TopDPOUneT8ygadDGMU5s7w4Z1Ow2AKwxazRFlBZXwiu
8+16UmiL1/6Ot8aNB6dHI3guv2sMvixaRLQY7Aj3tQoIp3yIyQ42TMeEOrG9vLia
bNT+AP+G6W6WXWmABP4lE6Xy47m24dzqMxhAj/0+JyA4aCtZ9KBZU2T8V/+f5pkr
+ntcA1yhKxR9+6S/z0FExg4gx2j8g0Z/gPZ9eXw1L46flvVVonkIjFO6n6ZOySwi
5xs3AgMBAAGjbTBrMB0GA1UdDgQWBBQhwX/z/uSgZUzM8rsyIbw33qY0UTBKBgNV
HREEQzBBghNpZHBudC5lZWEuZXVyb3BhLmV1hipodHRwczovL2lkcG50LmVlYS5l
dXJvcGEuZXUvaWRwL3NoaWJib2xldGgwDQYJKoZIhvcNAQELBQADggEBAIuEtsQs
ybObaOHJn+9ocLXYMPPq3NezA0bXLxlmkuhZJ1sPddWCTLZ5pqPs58lpf6qwbFwB
FubRd9fnXRHzXkIFDECaGyIwGLvsOD5McGAf4vqj+KA/BQyR8bJA25PzqFBj/9XO
cQ3tww04vMyg8Pcm5Q5+2RjxR+hatW0XT7aZVS4a8Fo9HSVqjC1D+faKX19BpFep
M5adudGNEzmru7JzFtmE3qSfTa6Qb4jp6OzueJwHhcoqKKpZgOa7iuh9VchlGc11
cSM+VRDYDbmvuxFJRP4Q6WBa6Q104pcnhMpkNm5h/I6w5BQrUOWvKpmhUbP6voRL
8WaFgMzgoTazEKE=
-----END CERTIFICATE-----
